target datalayout = "e-m:e-p270:32:32-p271:32:32-p272:64:64-i64:64-i128:128-f80:128-n8:16:32:64-S128"
target triple = "x86_64-pc-linux-gnu"

%struct.Vec_Int_t_ = type { i32, i32, ptr }

@.str.1 = private unnamed_addr constant [3 x i8] c"%c\00", align 1
@.str.2 = private unnamed_addr constant [2 x i8] c"\0A\00", align 1
@.str.3 = private unnamed_addr constant [38 x i8] c"\0A\0A=================================\0A\0A\00", align 1

; Function Attrs: inlinehint nounwind uwtable
define internal ptr @Vec_IntEntryP(ptr noundef %0, i32 noundef %1) #1 {
  %3 = alloca ptr, align 8
  %4 = alloca i32, align 4
  store ptr %0, ptr %3, align 8, !tbaa !39
  store i32 %1, ptr %4, align 4, !tbaa !3
  %5 = load ptr, ptr %3, align 8, !tbaa !39
  %6 = getelementptr inbounds nuw %struct.Vec_Int_t_, ptr %5, i32 0, i32 2
  %7 = load ptr, ptr %6, align 8, !tbaa !45
  %8 = load i32, ptr %4, align 4, !tbaa !3
  %9 = sext i32 %8 to i64
  %10 = getelementptr inbounds i32, ptr %7, i64 %9
  ret ptr %10
}

; Function Attrs: inlinehint nounwind uwtable
define internal i32 @Vec_IntSize(ptr noundef %0) #1 {
  %2 = alloca ptr, align 8
  store ptr %0, ptr %2, align 8, !tbaa !39
  %3 = load ptr, ptr %2, align 8, !tbaa !39
  %4 = getelementptr inbounds nuw %struct.Vec_Int_t_, ptr %3, i32 0, i32 1
  %5 = load i32, ptr %4, align 4, !tbaa !43
  ret i32 %5
}

; Function Attrs: nounwind uwtable
define void @Abc_GraphPathPrint4(ptr noundef %0, ptr noundef %1) #0 {
  %3 = alloca ptr, align 8
  %4 = alloca ptr, align 8
  %5 = alloca [13 x [13 x i8]], align 16
  %6 = alloca i32, align 4
  %7 = alloca i32, align 4
  %8 = alloca i32, align 4
  %9 = alloca i32, align 4
  %10 = alloca ptr, align 8
  %11 = alloca i32, align 4
  %12 = alloca i32, align 4
  %13 = alloca i32, align 4
  %14 = alloca i32, align 4
  %15 = alloca i32, align 4
  store ptr %0, ptr %3, align 8, !tbaa !10
  store ptr %1, ptr %4, align 8, !tbaa !39
  call void @llvm.lifetime.start.p0(i64 169, ptr %5) #12
  call void @llvm.lifetime.start.p0(i64 4, ptr %6) #12
  call void @llvm.lifetime.start.p0(i64 4, ptr %7) #12
  call void @llvm.lifetime.start.p0(i64 4, ptr %8) #12
  call void @llvm.lifetime.start.p0(i64 4, ptr %9) #12
  %16 = load ptr, ptr %4, align 8, !tbaa !39
  %17 = call i32 @Vec_IntSize(ptr noundef %16)
  %18 = sdiv i32 %17, 2
  store i32 %18, ptr %9, align 4, !tbaa !3
  store i32 0, ptr %7, align 4, !tbaa !3
  br label %19

19:                                               ; preds = %53, %2
  %20 = load i32, ptr %7, align 4, !tbaa !3
  %21 = icmp slt i32 %20, 13
  br i1 %21, label %22, label %56

22:                                               ; preds = %19
  store i32 0, ptr %6, align 4, !tbaa !3
  br label %23

23:                                               ; preds = %49, %22
  %24 = load i32, ptr %6, align 4, !tbaa !3
  %25 = icmp slt i32 %24, 13
  br i1 %25, label %26, label %52

26:                                               ; preds = %23
  %27 = load i32, ptr %7, align 4, !tbaa !3
  %28 = srem i32 %27, 4
  %29 = icmp eq i32 %28, 0
  br i1 %29, label %30, label %41

30:                                               ; preds = %26
  %31 = load i32, ptr %6, align 4, !tbaa !3
  %32 = srem i32 %31, 4
  %33 = icmp eq i32 %32, 0
  br i1 %33, label %34, label %41

34:                                               ; preds = %30
  %35 = load i32, ptr %7, align 4, !tbaa !3
  %36 = sext i32 %35 to i64
  %37 = getelementptr inbounds [13 x [13 x i8]], ptr %5, i64 0, i64 %36
  %38 = load i32, ptr %6, align 4, !tbaa !3
  %39 = sext i32 %38 to i64
  %40 = getelementptr inbounds [13 x i8], ptr %37, i64 0, i64 %39
  store i8 42, ptr %40, align 1, !tbaa !57
  br label %48

41:                                               ; preds = %30, %26
  %42 = load i32, ptr %7, align 4, !tbaa !3
  %43 = sext i32 %42 to i64
  %44 = getelementptr inbounds [13 x [13 x i8]], ptr %5, i64 0, i64 %43
  %45 = load i32, ptr %6, align 4, !tbaa !3
  %46 = sext i32 %45 to i64
  %47 = getelementptr inbounds [13 x i8], ptr %44, i64 0, i64 %46
  store i8 32, ptr %47, align 1, !tbaa !57
  br label %48

48:                                               ; preds = %41, %34
  br label %49

49:                                               ; preds = %48
  %50 = load i32, ptr %6, align 4, !tbaa !3
  %51 = add nsw i32 %50, 1
  store i32 %51, ptr %6, align 4, !tbaa !3
  br label %23, !llvm.loop !58

52:                                               ; preds = %23
  br label %53

53:                                               ; preds = %52
  %54 = load i32, ptr %7, align 4, !tbaa !3
  %55 = add nsw i32 %54, 1
  store i32 %55, ptr %7, align 4, !tbaa !3
  br label %19, !llvm.loop !59

56:                                               ; preds = %19
  store i32 0, ptr %8, align 4, !tbaa !3
  br label %57

57:                                               ; preds = %143, %56
  %58 = load i32, ptr %8, align 4, !tbaa !3
  %59 = load i32, ptr %9, align 4, !tbaa !3
  %60 = icmp slt i32 %58, %59
  br i1 %60, label %61, label %146

61:                                               ; preds = %57
  call void @llvm.lifetime.start.p0(i64 8, ptr %10) #12
  %62 = load ptr, ptr %4, align 8, !tbaa !39
  %63 = load i32, ptr %8, align 4, !tbaa !3
  %64 = mul nsw i32 2, %63
  %65 = call ptr @Vec_IntEntryP(ptr noundef %62, i32 noundef %64)
  store ptr %65, ptr %10, align 8, !tbaa !10
  call void @llvm.lifetime.start.p0(i64 4, ptr %11) #12
  %66 = load ptr, ptr %10, align 8, !tbaa !10
  %67 = getelementptr inbounds i32, ptr %66, i64 0
  %68 = load i32, ptr %67, align 4, !tbaa !3
  %69 = sdiv i32 %68, 4
  %70 = mul nsw i32 4, %69
  store i32 %70, ptr %11, align 4, !tbaa !3
  call void @llvm.lifetime.start.p0(i64 4, ptr %12) #12
  %71 = load ptr, ptr %10, align 8, !tbaa !10
  %72 = getelementptr inbounds i32, ptr %71, i64 0
  %73 = load i32, ptr %72, align 4, !tbaa !3
  %74 = srem i32 %73, 4
  %75 = mul nsw i32 4, %74
  store i32 %75, ptr %12, align 4, !tbaa !3
  call void @llvm.lifetime.start.p0(i64 4, ptr %13) #12
  %76 = load ptr, ptr %10, align 8, !tbaa !10
  %77 = getelementptr inbounds i32, ptr %76, i64 1
  %78 = load i32, ptr %77, align 4, !tbaa !3
  %79 = sdiv i32 %78, 4
  %80 = mul nsw i32 4, %79
  store i32 %80, ptr %13, align 4, !tbaa !3
  call void @llvm.lifetime.start.p0(i64 4, ptr %14) #12
  %81 = load ptr, ptr %10, align 8, !tbaa !10
  %82 = getelementptr inbounds i32, ptr %81, i64 1
  %83 = load i32, ptr %82, align 4, !tbaa !3
  %84 = srem i32 %83, 4
  %85 = mul nsw i32 4, %84
  store i32 %85, ptr %14, align 4, !tbaa !3
  %86 = load ptr, ptr %3, align 8, !tbaa !10
  %87 = load i32, ptr %8, align 4, !tbaa !3
  %88 = sext i32 %87 to i64
  %89 = getelementptr inbounds i32, ptr %86, i64 %88
  %90 = load i32, ptr %89, align 4, !tbaa !3
  %91 = icmp ne i32 %90, 0
  br i1 %91, label %93, label %92

92:                                               ; preds = %61
  store i32 10, ptr %15, align 4
  br label %140

93:                                               ; preds = %61
  %94 = load i32, ptr %11, align 4, !tbaa !3
  %95 = load i32, ptr %13, align 4, !tbaa !3
  %96 = icmp eq i32 %94, %95
  br i1 %96, label %97, label %115

97:                                               ; preds = %93
  %98 = load i32, ptr %12, align 4, !tbaa !3
  %99 = add nsw i32 %98, 1
  store i32 %99, ptr %6, align 4, !tbaa !3
  br label %100

100:                                              ; preds = %111, %97
  %101 = load i32, ptr %6, align 4, !tbaa !3
  %102 = load i32, ptr %14, align 4, !tbaa !3
  %103 = icmp slt i32 %101, %102
  br i1 %103, label %104, label %114

104:                                              ; preds = %100
  %105 = load i32, ptr %11, align 4, !tbaa !3
  %106 = sext i32 %105 to i64
  %107 = getelementptr inbounds [13 x [13 x i8]], ptr %5, i64 0, i64 %106
  %108 = load i32, ptr %6, align 4, !tbaa !3
  %109 = sext i32 %108 to i64
  %110 = getelementptr inbounds [13 x i8], ptr %107, i64 0, i64 %109
  store i8 45, ptr %110, align 1, !tbaa !57
  br label %111

111:                                              ; preds = %104
  %112 = load i32, ptr %6, align 4, !tbaa !3
  %113 = add nsw i32 %112, 1
  store i32 %113, ptr %6, align 4, !tbaa !3
  br label %100, !llvm.loop !60

114:                                              ; preds = %100
  br label %139

115:                                              ; preds = %93
  %116 = load i32, ptr %12, align 4, !tbaa !3
  %117 = load i32, ptr %14, align 4, !tbaa !3
  %118 = icmp eq i32 %116, %117
  br i1 %118, label %119, label %137

119:                                              ; preds = %115
  %120 = load i32, ptr %11, align 4, !tbaa !3
  %121 = add nsw i32 %120, 1
  store i32 %121, ptr %7, align 4, !tbaa !3
  br label %122

122:                                              ; preds = %133, %119
  %123 = load i32, ptr %7, align 4, !tbaa !3
  %124 = load i32, ptr %13, align 4, !tbaa !3
  %125 = icmp slt i32 %123, %124
  br i1 %125, label %126, label %136

126:                                              ; preds = %122
  %127 = load i32, ptr %7, align 4, !tbaa !3
  %128 = sext i32 %127 to i64
  %129 = getelementptr inbounds [13 x [13 x i8]], ptr %5, i64 0, i64 %128
  %130 = load i32, ptr %12, align 4, !tbaa !3
  %131 = sext i32 %130 to i64
  %132 = getelementptr inbounds [13 x i8], ptr %129, i64 0, i64 %131
  store i8 124, ptr %132, align 1, !tbaa !57
  br label %133

133:                                              ; preds = %126
  %134 = load i32, ptr %7, align 4, !tbaa !3
  %135 = add nsw i32 %134, 1
  store i32 %135, ptr %7, align 4, !tbaa !3
  br label %122, !llvm.loop !61

136:                                              ; preds = %122
  br label %138

137:                                              ; preds = %115
  br label %138

138:                                              ; preds = %137, %136
  br label %139

139:                                              ; preds = %138, %114
  store i32 0, ptr %15, align 4
  br label %140

140:                                              ; preds = %139, %92
  call void @llvm.lifetime.end.p0(i64 4, ptr %14) #12
  call void @llvm.lifetime.end.p0(i64 4, ptr %13) #12
  call void @llvm.lifetime.end.p0(i64 4, ptr %12) #12
  call void @llvm.lifetime.end.p0(i64 4, ptr %11) #12
  call void @llvm.lifetime.end.p0(i64 8, ptr %10) #12
  %141 = load i32, ptr %15, align 4
  switch i32 %141, label %174 [
    i32 0, label %142
    i32 10, label %143
  ]

142:                                              ; preds = %140
  br label %143

143:                                              ; preds = %142, %140
  %144 = load i32, ptr %8, align 4, !tbaa !3
  %145 = add nsw i32 %144, 1
  store i32 %145, ptr %8, align 4, !tbaa !3
  br label %57, !llvm.loop !62

146:                                              ; preds = %57
  store i32 0, ptr %7, align 4, !tbaa !3
  br label %147

147:                                              ; preds = %168, %146
  %148 = load i32, ptr %7, align 4, !tbaa !3
  %149 = icmp slt i32 %148, 13
  br i1 %149, label %150, label %172

150:                                              ; preds = %147
  store i32 0, ptr %6, align 4, !tbaa !3
  br label %151

151:                                              ; preds = %164, %150
  %152 = load i32, ptr %6, align 4, !tbaa !3
  %153 = icmp slt i32 %152, 13
  br i1 %153, label %154, label %167

154:                                              ; preds = %151
  %155 = load i32, ptr %7, align 4, !tbaa !3
  %156 = sext i32 %155 to i64
  %157 = getelementptr inbounds [13 x [13 x i8]], ptr %5, i64 0, i64 %156
  %158 = load i32, ptr %6, align 4, !tbaa !3
  %159 = sext i32 %158 to i64
  %160 = getelementptr inbounds [13 x i8], ptr %157, i64 0, i64 %159
  %161 = load i8, ptr %160, align 1, !tbaa !57
  %162 = sext i8 %161 to i32
  %163 = call i32 (ptr, ...) @printf(ptr noundef @.str.1, i32 noundef %162)
  br label %164

164:                                              ; preds = %154
  %165 = load i32, ptr %6, align 4, !tbaa !3
  %166 = add nsw i32 %165, 1
  store i32 %166, ptr %6, align 4, !tbaa !3
  br label %151, !llvm.loop !63

167:                                              ; preds = %151
  br label %168

168:                                              ; preds = %167
  %169 = load i32, ptr %7, align 4, !tbaa !3
  %170 = add nsw i32 %169, 1
  store i32 %170, ptr %7, align 4, !tbaa !3
  %171 = call i32 (ptr, ...) @printf(ptr noundef @.str.2)
  br label %147, !llvm.loop !64

172:                                              ; preds = %147
  %173 = call i32 (ptr, ...) @printf(ptr noundef @.str.3)
  call void @llvm.lifetime.end.p0(i64 4, ptr %9) #12
  call void @llvm.lifetime.end.p0(i64 4, ptr %8) #12
  call void @llvm.lifetime.end.p0(i64 4, ptr %7) #12
  call void @llvm.lifetime.end.p0(i64 4, ptr %6) #12
  call void @llvm.lifetime.end.p0(i64 169, ptr %5) #12
  ret void

174:                                              ; preds = %140
  unreachable
}